target datalayout = "e-m:e-p270:32:32-p271:32:32-p272:64:64-i64:64-i128:128-f80:128-n8:16:32:64-S128"
target triple = "x86_64-pc-linux-gnu"

; Function Attrs: nounwind uwtable
define internal i32 @zueci_u_lookup_uro(i32 noundef %0, ptr noundef %1, ptr noundef %2, ptr noundef %3, ptr noundef %4) #0 {
  %6 = alloca i32, align 4
  %7 = alloca i32, align 4
  %8 = alloca ptr, align 8
  %9 = alloca ptr, align 8
  %10 = alloca ptr, align 8
  %11 = alloca ptr, align 8
  %12 = alloca i32, align 4
  %13 = alloca i32, align 4
  %14 = alloca i16, align 2
  store i32 %0, ptr %7, align 4
  store ptr %1, ptr %8, align 8
  store ptr %2, ptr %9, align 8
  store ptr %3, ptr %10, align 8
  store ptr %4, ptr %11, align 8
  %15 = load i32, ptr %7, align 4
  %16 = sub i32 %15, 19968
  %17 = lshr i32 %16, 4
  store i32 %17, ptr %12, align 4
  %18 = load i32, ptr %7, align 4
  %19 = and i32 %18, 15
  %20 = shl i32 1, %19
  store i32 %20, ptr %13, align 4
  %21 = load ptr, ptr %8, align 8
  %22 = load i32, ptr %12, align 4
  %23 = zext i32 %22 to i64
  %24 = getelementptr inbounds i16, ptr %21, i64 %23
  %25 = load i16, ptr %24, align 2
  %26 = zext i16 %25 to i32
  %27 = load i32, ptr %13, align 4
  %28 = and i32 %26, %27
  %29 = icmp eq i32 %28, 0
  br i1 %29, label %30, label %31

30:                                               ; preds = %5
  store i32 0, ptr %6, align 4
  br label %81

31:                                               ; preds = %5
  %32 = load ptr, ptr %8, align 8
  %33 = load i32, ptr %12, align 4
  %34 = zext i32 %33 to i64
  %35 = getelementptr inbounds i16, ptr %32, i64 %34
  %36 = load i16, ptr %35, align 2
  %37 = zext i16 %36 to i32
  %38 = load i32, ptr %13, align 4
  %39 = sub i32 %38, 1
  %40 = and i32 %37, %39
  store i32 %40, ptr %13, align 4
  %41 = load i32, ptr %13, align 4
  %42 = load i32, ptr %13, align 4
  %43 = lshr i32 %42, 1
  %44 = and i32 %43, 1431655765
  %45 = sub i32 %41, %44
  store i32 %45, ptr %13, align 4
  %46 = load i32, ptr %13, align 4
  %47 = and i32 %46, 858993459
  %48 = load i32, ptr %13, align 4
  %49 = lshr i32 %48, 2
  %50 = and i32 %49, 858993459
  %51 = add i32 %47, %50
  store i32 %51, ptr %13, align 4
  %52 = load i32, ptr %13, align 4
  %53 = load i32, ptr %13, align 4
  %54 = lshr i32 %53, 4
  %55 = add i32 %52, %54
  %56 = and i32 %55, 252645135
  %57 = mul i32 %56, 16843009
  %58 = lshr i32 %57, 24
  store i32 %58, ptr %13, align 4
  %59 = load ptr, ptr %10, align 8
  %60 = load ptr, ptr %9, align 8
  %61 = load i32, ptr %12, align 4
  %62 = zext i32 %61 to i64
  %63 = getelementptr inbounds i16, ptr %60, i64 %62
  %64 = load i16, ptr %63, align 2
  %65 = zext i16 %64 to i32
  %66 = load i32, ptr %13, align 4
  %67 = add i32 %65, %66
  %68 = zext i32 %67 to i64
  %69 = getelementptr inbounds i16, ptr %59, i64 %68
  %70 = load i16, ptr %69, align 2
  store i16 %70, ptr %14, align 2
  %71 = load i16, ptr %14, align 2
  %72 = zext i16 %71 to i32
  %73 = ashr i32 %72, 8
  %74 = trunc i32 %73 to i8
  %75 = load ptr, ptr %11, align 8
  %76 = getelementptr inbounds i8, ptr %75, i64 0
  store i8 %74, ptr %76, align 1
  %77 = load i16, ptr %14, align 2
  %78 = trunc i16 %77 to i8
  %79 = load ptr, ptr %11, align 8
  %80 = getelementptr inbounds i8, ptr %79, i64 1
  store i8 %78, ptr %80, align 1
  store i32 2, ptr %6, align 4
  br label %81

81:                                               ; preds = %31, %30
  %82 = load i32, ptr %6, align 4
  ret i32 %82
}

; Function Attrs: nounwind uwtable
define internal i32 @zueci_u_big5(i32 noundef %0, ptr noundef %1) #0 {
  %3 = alloca i32, align 4
  %4 = alloca i32, align 4
  %5 = alloca ptr, align 8
  %6 = alloca i32, align 4
  %7 = alloca i32, align 4
  %8 = alloca i32, align 4
  %9 = alloca i16, align 2
  store i32 %0, ptr %4, align 4
  store ptr %1, ptr %5, align 8
  %10 = load i32, ptr %4, align 4
  %11 = icmp ult i32 %10, 128
  br i1 %11, label %12, label %16

12:                                               ; preds = %2
  %13 = load i32, ptr %4, align 4
  %14 = trunc i32 %13 to i8
  %15 = load ptr, ptr %5, align 8
  store i8 %14, ptr %15, align 1
  store i32 1, ptr %3, align 4
  br label %98

16:                                               ; preds = %2
  %17 = load i32, ptr %4, align 4
  %18 = icmp uge i32 %17, 19968
  br i1 %18, label %19, label %30

19:                                               ; preds = %16
  %20 = load i32, ptr %4, align 4
  %21 = icmp ult i32 %20, 64012
  br i1 %21, label %22, label %30

22:                                               ; preds = %19
  %23 = load i32, ptr %4, align 4
  %24 = icmp uge i32 %23, 40880
  br i1 %24, label %25, label %26

25:                                               ; preds = %22
  store i32 0, ptr %3, align 4
  br label %98

26:                                               ; preds = %22
  %27 = load i32, ptr %4, align 4
  %28 = load ptr, ptr %5, align 8
  %29 = call i32 @zueci_u_lookup_uro(i32 noundef %27, ptr noundef @zueci_big5_uro_u, ptr noundef @zueci_big5_uro_mb_ind, ptr noundef @zueci_big5_u_mb, ptr noundef %28)
  store i32 %29, ptr %3, align 4
  br label %98

30:                                               ; preds = %19, %16
  %31 = load i32, ptr %4, align 4
  %32 = load i16, ptr @zueci_big5_u_u, align 16
  %33 = zext i16 %32 to i32
  %34 = icmp uge i32 %31, %33
  br i1 %34, label %35, label %97

35:                                               ; preds = %30
  %36 = load i32, ptr %4, align 4
  %37 = load i16, ptr getelementptr inbounds ([642 x i16], ptr @zueci_big5_u_u, i64 0, i64 641), align 2
  %38 = zext i16 %37 to i32
  %39 = icmp ule i32 %36, %38
  br i1 %39, label %40, label %97

40:                                               ; preds = %35
  store i32 0, ptr %6, align 4
  store i32 641, ptr %7, align 4
  br label %41

41:                                               ; preds = %95, %40
  %42 = load i32, ptr %6, align 4
  %43 = load i32, ptr %7, align 4
  %44 = icmp sle i32 %42, %43
  br i1 %44, label %45, label %96

45:                                               ; preds = %41
  %46 = load i32, ptr %6, align 4
  %47 = load i32, ptr %7, align 4
  %48 = add nsw i32 %46, %47
  %49 = ashr i32 %48, 1
  store i32 %49, ptr %8, align 4
  %50 = load i32, ptr %8, align 4
  %51 = sext i32 %50 to i64
  %52 = getelementptr inbounds [642 x i16], ptr @zueci_big5_u_u, i64 0, i64 %51
  %53 = load i16, ptr %52, align 2
  %54 = zext i16 %53 to i32
  %55 = load i32, ptr %4, align 4
  %56 = icmp ult i32 %54, %55
  br i1 %56, label %57, label %60

57:                                               ; preds = %45
  %58 = load i32, ptr %8, align 4
  %59 = add nsw i32 %58, 1
  store i32 %59, ptr %6, align 4
  br label %95

60:                                               ; preds = %45
  %61 = load i32, ptr %8, align 4
  %62 = sext i32 %61 to i64
  %63 = getelementptr inbounds [642 x i16], ptr @zueci_big5_u_u, i64 0, i64 %62
  %64 = load i16, ptr %63, align 2
  %65 = zext i16 %64 to i32
  %66 = load i32, ptr %4, align 4
  %67 = icmp ugt i32 %65, %66
  br i1 %67, label %68, label %71

68:                                               ; preds = %60
  %69 = load i32, ptr %8, align 4
  %70 = sub nsw i32 %69, 1
  store i32 %70, ptr %7, align 4
  br label %94

71:                                               ; preds = %60
  %72 = load i32, ptr %4, align 4
  %73 = icmp uge i32 %72, 19968
  br i1 %73, label %74, label %77

74:                                               ; preds = %71
  %75 = load i32, ptr %8, align 4
  %76 = add nsw i32 %75, 13061
  br label %79

77:                                               ; preds = %71
  %78 = load i32, ptr %8, align 4
  br label %79

79:                                               ; preds = %77, %74
  %80 = phi i32 [ %76, %74 ], [ %78, %77 ]
  %81 = sext i32 %80 to i64
  %82 = getelementptr inbounds [13703 x i16], ptr @zueci_big5_u_mb, i64 0, i64 %81
  %83 = load i16, ptr %82, align 2
  store i16 %83, ptr %9, align 2
  %84 = load i16, ptr %9, align 2
  %85 = zext i16 %84 to i32
  %86 = ashr i32 %85, 8
  %87 = trunc i32 %86 to i8
  %88 = load ptr, ptr %5, align 8
  %89 = getelementptr inbounds i8, ptr %88, i64 0
  store i8 %87, ptr %89, align 1
  %90 = load i16, ptr %9, align 2
  %91 = trunc i16 %90 to i8
  %92 = load ptr, ptr %5, align 8
  %93 = getelementptr inbounds i8, ptr %92, i64 1
  store i8 %91, ptr %93, align 1
  store i32 2, ptr %3, align 4
  br label %98

94:                                               ; preds = %68
  br label %95

95:                                               ; preds = %94, %57
  br label %41, !llvm.loop !11

96:                                               ; preds = %41
  br label %97

97:                                               ; preds = %96, %35, %30
  store i32 0, ptr %3, align 4
  br label %98

98:                                               ; preds = %97, %79, %26, %25, %12
  %99 = load i32, ptr %3, align 4
  ret i32 %99
}