; Function Attrs: nofree norecurse nosync nounwind memory(argmem: write) uwtable
define internal noundef i32 @zueci_u_big5(i32 noundef %0, ptr nocapture noundef writeonly %1) #1 {
  %3 = icmp ult i32 %0, 128
  br i1 %3, label %4, label %6

4:                                                ; preds = %2
  %5 = trunc nuw nsw i32 %0 to i8
  store i8 %5, ptr %1, align 1
  br label %zueci_u_lookup_uro.exit

6:                                                ; preds = %2
  %7 = icmp ugt i32 %0, 19967
  %8 = add i32 %0, -19968
  %or.cond = icmp ult i32 %8, 44044
  br i1 %or.cond, label %9, label %47

9:                                                ; preds = %6
  %10 = icmp ugt i32 %0, 40879
  br i1 %10, label %zueci_u_lookup_uro.exit, label %11

11:                                               ; preds = %9
  %12 = lshr i32 %8, 4
  %13 = and i32 %0, 15
  %14 = shl nuw nsw i32 1, %13
  %15 = zext nneg i32 %12 to i64
  %16 = getelementptr inbounds i16, ptr @zueci_big5_uro_u, i64 %15
  %17 = load i16, ptr %16, align 2
  %18 = zext i16 %17 to i32
  %19 = and i32 %14, %18
  %20 = icmp eq i32 %19, 0
  br i1 %20, label %zueci_u_lookup_uro.exit, label %21

21:                                               ; preds = %11
  %22 = add nuw nsw i32 %14, 65535
  %23 = and i32 %22, %18
  %24 = lshr i32 %23, 1
  %25 = and i32 %24, 21845
  %26 = sub nsw i32 %23, %25
  %27 = and i32 %26, 858993459
  %28 = lshr i32 %26, 2
  %29 = and i32 %28, 858993459
  %30 = add nuw nsw i32 %29, %27
  %31 = lshr i32 %30, 4
  %32 = add nuw nsw i32 %31, %30
  %33 = and i32 %32, 252645135
  %34 = mul i32 %33, 16843009
  %35 = lshr i32 %34, 24
  %36 = getelementptr inbounds i16, ptr @zueci_big5_uro_mb_ind, i64 %15
  %37 = load i16, ptr %36, align 2
  %38 = zext i16 %37 to i32
  %39 = add nuw nsw i32 %35, %38
  %40 = zext nneg i32 %39 to i64
  %41 = getelementptr inbounds i16, ptr @zueci_big5_u_mb, i64 %40
  %42 = load i16, ptr %41, align 2
  %43 = lshr i16 %42, 8
  %44 = trunc nuw i16 %43 to i8
  store i8 %44, ptr %1, align 1
  %45 = trunc i16 %42 to i8
  %46 = getelementptr inbounds i8, ptr %1, i64 1
  store i8 %45, ptr %46, align 1
  br label %zueci_u_lookup_uro.exit

47:                                               ; preds = %6
  %48 = add i32 %0, -162
  %or.cond34 = icmp ult i32 %48, 65219
  br i1 %or.cond34, label %.preheader, label %zueci_u_lookup_uro.exit

.preheader:                                       ; preds = %47, %72
  %.02836 = phi i32 [ %.1, %72 ], [ 0, %47 ]
  %.02935 = phi i32 [ %.130, %72 ], [ 641, %47 ]
  %49 = add nsw i32 %.02836, %.02935
  %50 = ashr i32 %49, 1
  %51 = sext i32 %50 to i64
  %52 = getelementptr inbounds [642 x i16], ptr @zueci_big5_u_u, i64 0, i64 %51
  %53 = load i16, ptr %52, align 2
  %54 = zext i16 %53 to i32
  %55 = icmp ult i32 %54, %0
  br i1 %55, label %56, label %58

56:                                               ; preds = %.preheader
  %57 = add nsw i32 %50, 1
  br label %72

58:                                               ; preds = %.preheader
  %59 = icmp ugt i32 %54, %0
  br i1 %59, label %60, label %62

60:                                               ; preds = %58
  %61 = add nsw i32 %50, -1
  br label %72

62:                                               ; preds = %58
  %63 = add nsw i32 %50, 13061
  %64 = select i1 %7, i32 %63, i32 %50
  %65 = sext i32 %64 to i64
  %66 = getelementptr inbounds [13703 x i16], ptr @zueci_big5_u_mb, i64 0, i64 %65
  %67 = load i16, ptr %66, align 2
  %68 = lshr i16 %67, 8
  %69 = trunc nuw i16 %68 to i8
  store i8 %69, ptr %1, align 1
  %70 = trunc i16 %67 to i8
  %71 = getelementptr inbounds i8, ptr %1, i64 1
  store i8 %70, ptr %71, align 1
  br label %zueci_u_lookup_uro.exit

72:                                               ; preds = %60, %56
  %.130 = phi i32 [ %.02935, %56 ], [ %61, %60 ]
  %.1 = phi i32 [ %57, %56 ], [ %.02836, %60 ]
  %.not = icmp sgt i32 %.1, %.130
  br i1 %.not, label %zueci_u_lookup_uro.exit, label %.preheader, !llvm.loop !12

zueci_u_lookup_uro.exit:                          ; preds = %72, %21, %11, %47, %9, %62, %4
  %.0 = phi i32 [ 1, %4 ], [ 2, %62 ], [ 0, %9 ], [ 0, %47 ], [ 2, %21 ], [ 0, %11 ], [ 0, %72 ]
  ret i32 %.0
}